(dp1
S'username'
p2
(dp3
S'sortable'
p4
I2
sS'sql'
p5
S'TEXT'
p6
sS'length'
p7
I32768
sS'notnull'
p8
I00
sS'unique'
p9
I00
sS'type'
p10
S'text'
p11
ssS'profile_pic'
p12
(dp13
S'length'
p14
I512
sS'unique'
p15
I00
sS'sortable'
p16
I6
sS'sql'
p17
S'CHAR(512)'
p18
sS'notnull'
p19
I00
sS'type'
p20
S'upload'
p21
ssS'hometown'
p22
(dp23
g14
I32768
sg15
I00
sg16
I5
sg17
S'TEXT'
p24
sg19
I00
sg20
S'text'
p25
<<<<<<< Updated upstream
ssS'studying'
=======
ssS'name'
>>>>>>> Stashed changes
p26
(dp27
g14
I32768
sg15
I00
sg16
<<<<<<< Updated upstream
I4
=======
I2
>>>>>>> Stashed changes
sg17
S'TEXT'
p28
sg19
I00
sg20
g25
ssS'hometown'
p29
(dp30
g14
I32768
sg15
I00
sg16
I5
sg17
S'TEXT'
p31
sg19
I00
sg20
g25
ssS'ntrp'
p32
(dp33
S'sortable'
p34
I6
sS'sql'
p35
S'INTEGER'
p36
sS'length'
p37
I512
sS'notnull'
p38
I00
sS'unique'
p39
I00
sS'type'
p40
S'integer'
p41
ssS'year'
p42
(dp43
g14
I32768
sg15
I00
sg16
I3
sg17
S'TEXT'
p44
sg19
I00
sg20
g25
ssS'id'
p45
(dp46
g14
I512
sg15
I00
sg16
I1
sg17
S'INTEGER PRIMARY KEY AUTOINCREMENT'
p47
sg19
I00
sg20
S'id'
p48
ss.