(dp1
S'output'
p2
S''
sS'layer'
p3
S'Framework'
p4
sS'code'
p5
S''
sS'snapshot'
p6
(dp7
S'exception'
p8
(dp9
S'__hash__'
p10
S"<method-wrapper '__hash__' of exceptions.NameError object>"
p11
sS'__setattr__'
p12
S"<method-wrapper '__setattr__' of exceptions.NameError object>"
p13
sS'__reduce_ex__'
p14
S'<built-in method __reduce_ex__ of exceptions.NameError object>'
p15
sS'__getslice__'
p16
S"<method-wrapper '__getslice__' of exceptions.NameError object>"
p17
sS'__getitem__'
p18
S"<method-wrapper '__getitem__' of exceptions.NameError object>"
p19
sS'__setstate__'
p20
S'<built-in method __setstate__ of exceptions.NameError object>'
p21
sS'args'
p22
S'("name \'layout\' is not defined",)'
p23
sS'__reduce__'
p24
S'<built-in method __reduce__ of exceptions.NameError object>'
p25
sS'__str__'
p26
S"<method-wrapper '__str__' of exceptions.NameError object>"
p27
sS'__format__'
p28
S'<built-in method __format__ of exceptions.NameError object>'
p29
sS'__getattribute__'
p30
S"<method-wrapper '__getattribute__' of exceptions.NameError object>"
p31
sS'__class__'
p32
S"<type 'exceptions.NameError'>"
p33
sS'__unicode__'
p34
S'<built-in method __unicode__ of exceptions.NameError object>'
p35
sS'__delattr__'
p36
S"<method-wrapper '__delattr__' of exceptions.NameError object>"
p37
sS'__subclasshook__'
p38
S'<built-in method __subclasshook__ of type object>'
p39
sS'__repr__'
p40
S"<method-wrapper '__repr__' of exceptions.NameError object>"
p41
sS'__dict__'
p42
S'{}'
p43
sS'__sizeof__'
p44
S'<built-in method __sizeof__ of exceptions.NameError object>'
p45
sS'__doc__'
p46
S"'Name not found globally.'"
p47
sS'__init__'
p48
S"<method-wrapper '__init__' of exceptions.NameError object>"
p49
sS'__new__'
p50
S'<built-in method __new__ of type object>'
p51
ssS'evalue'
p52
S"name 'layout' is not defined"
p53
sS'request'
p54
cgluon.html
XML_unpickle
p55
(S's\x14\x85\x00\x00<div><table><tr><td style="font-weight:bold;vertical-align:top;">ajax</td><td style="vertical-align:top;">:</td><td><div>False</div></td></tr><tr><td style="font-weight:bold;vertical-align:top;">application</td><td style="vertical-align:top;">:</td><td><div>tennis_club</div></td></tr><tr><td style="font-weight:bold;vertical-align:top;">args</td><td style="vertical-align:top;">:</td><td><div><table><tr><td><div>roster</div></td></tr></table></div></td></tr><tr><td style="font-weight:bold;vertical-align:top;">cid</td><td style="vertical-align:top;">:</td><td><div>None</div></td></tr><tr><td style="font-weight:bold;vertical-align:top;">client</td><td style="vertical-align:top;">:</td><td><div>127.0.0.1</div></td></tr><tr><td style="font-weight:bold;vertical-align:top;">controller</td><td style="vertical-align:top;">:</td><td><div>default</div></td></tr><tr><td style="font-weight:bold;vertical-align:top;">cookies</td><td style="vertical-align:top;">:</td><td><div><table><tr><td style="font-weight:bold;vertical-align:top;">session_id_admin</td><td style="vertical-align:top;">:</td><td><div>127.0.0.1-115d8a30-de66-4b4f-8a53-2cf1d26de9f0<table><tr><td style="font-weight:bold;vertical-align:top;">comment</td><td style="vertical-align:top;">:</td><td><div></div></td></tr><tr><td style="font-weight:bold;vertical-align:top;">domain</td><td style="vertical-align:top;">:</td><td><div></div></td></tr><tr><td style="font-weight:bold;vertical-align:top;">expires</td><td style="vertical-align:top;">:</td><td><div></div></td></tr><tr><td style="font-weight:bold;vertical-align:top;">httponly</td><td style="vertical-align:top;">:</td><td><div></div></td></tr><tr><td style="font-weight:bold;vertical-align:top;">max-age</td><td style="vertical-align:top;">:</td><td><div></div></td></tr><tr><td style="font-weight:bold;vertical-align:top;">path</td><td style="vertical-align:top;">:</td><td><div></div></td></tr><tr><td style="font-weight:bold;vertical-align:top;">secure</td><td style="vertical-align:top;">:</td><td><div></div></td></tr><tr><td style="font-weight:bold;vertical-align:top;">version</td><td style="vertical-align:top;">:</td><td><div></div></td></tr></table></div></td></tr><tr><td style="font-weight:bold;vertical-align:top;">session_id_asg_2</td><td style="vertical-align:top;">:</td><td><div>127.0.0.1-7535b31c-bd14-4efc-a57a-291bd4f4abef<table><tr><td style="font-weight:bold;vertical-align:top;">comment</td><td style="vertical-align:top;">:</td><td><div></div></td></tr><tr><td style="font-weight:bold;vertical-align:top;">domain</td><td style="vertical-align:top;">:</td><td><div></div></td></tr><tr><td style="font-weight:bold;vertical-align:top;">expires</td><td style="vertical-align:top;">:</td><td><div></div></td></tr><tr><td style="font-weight:bold;vertical-align:top;">httponly</td><td style="vertical-align:top;">:</td><td><div></div></td></tr><tr><td style="font-weight:bold;vertical-align:top;">max-age</td><td style="vertical-align:top;">:</td><td><div></div></td></tr><tr><td style="font-weight:bold;vertical-align:top;">path</td><td style="vertical-align:top;">:</td><td><div></div></td></tr><tr><td style="font-weight:bold;vertical-align:top;">secure</td><td style="vertical-align:top;">:</td><td><div></div></td></tr><tr><td style="font-weight:bold;vertical-align:top;">version</td><td style="vertical-align:top;">:</td><td><div></div></td></tr></table></div></td></tr><tr><td style="font-weight:bold;vertical-align:top;">session_id_assignment_2</td><td style="vertical-align:top;">:</td><td><div>127.0.0.1-756121ec-1900-42c4-9d3c-29b71c8405f4<table><tr><td style="font-weight:bold;vertical-align:top;">comment</td><td style="vertical-align:top;">:</td><td><div></div></td></tr><tr><td style="font-weight:bold;vertical-align:top;">domain</td><td style="vertical-align:top;">:</td><td><div></div></td></tr><tr><td style="font-weight:bold;vertical-align:top;">expires</td><td style="vertical-align:top;">:</td><td><div></div></td></tr><tr><td style="font-weight:bold;vertical-align:top;">httponly</td><td style="vertical-align:top;">:</td><td><div></div></td></tr><tr><td style="font-weight:bold;vertical-align:top;">max-age</td><td style="vertical-align:top;">:</td><td><div></div></td></tr><tr><td style="font-weight:bold;vertical-align:top;">path</td><td style="vertical-align:top;">:</td><td><div></div></td></tr><tr><td style="font-weight:bold;vertical-align:top;">secure</td><td style="vertical-align:top;">:</td><td><div></div></td></tr><tr><td style="font-weight:bold;vertical-align:top;">version</td><td style="vertical-align:top;">:</td><td><div></div></td></tr></table></div></td></tr><tr><td style="font-weight:bold;vertical-align:top;">session_id_final_project</td><td style="vertical-align:top;">:</td><td><div>127.0.0.1-f2110f8b-62bb-40a7-994b-96ba8a3535b4<table><tr><td style="font-weight:bold;vertical-align:top;">comment</td><td style="vertical-align:top;">:</td><td><div></div></td></tr><tr><td style="font-weight:bold;vertical-align:top;">domain</td><td style="vertical-align:top;">:</td><td><div></div></td></tr><tr><td style="font-weight:bold;vertical-align:top;">expires</td><td style="vertical-align:top;">:</td><td><div></div></td></tr><tr><td style="font-weight:bold;vertical-align:top;">httponly</td><td style="vertical-align:top;">:</td><td><div></div></td></tr><tr><td style="font-weight:bold;vertical-align:top;">max-age</td><td style="vertical-align:top;">:</td><td><div></div></td></tr><tr><td style="font-weight:bold;vertical-align:top;">path</td><td style="vertical-align:top;">:</td><td><div></div></td></tr><tr><td style="font-weight:bold;vertical-align:top;">secure</td><td style="vertical-align:top;">:</td><td><div></div></td></tr><tr><td style="font-weight:bold;vertical-align:top;">version</td><td style="vertical-align:top;">:</td><td><div></div></td></tr></table></div></td></tr><tr><td style="font-weight:bold;vertical-align:top;">session_id_first_review</td><td style="vertical-align:top;">:</td><td><div>127.0.0.1-78b0cdae-9295-4e6f-99d5-efcdd3ffd16c<table><tr><td style="font-weight:bold;vertical-align:top;">comment</td><td style="vertical-align:top;">:</td><td><div></div></td></tr><tr><td style="font-weight:bold;vertical-align:top;">domain</td><td style="vertical-align:top;">:</td><td><div></div></td></tr><tr><td style="font-weight:bold;vertical-align:top;">expires</td><td style="vertical-align:top;">:</td><td><div></div></td></tr><tr><td style="font-weight:bold;vertical-align:top;">httponly</td><td style="vertical-align:top;">:</td><td><div></div></td></tr><tr><td style="font-weight:bold;vertical-align:top;">max-age</td><td style="vertical-align:top;">:</td><td><div></div></td></tr><tr><td style="font-weight:bold;vertical-align:top;">path</td><td style="vertical-align:top;">:</td><td><div></div></td></tr><tr><td style="font-weight:bold;vertical-align:top;">secure</td><td style="vertical-align:top;">:</td><td><div></div></td></tr><tr><td style="font-weight:bold;vertical-align:top;">version</td><td style="vertical-align:top;">:</td><td><div></div></td></tr></table></div></td></tr><tr><td style="font-weight:bold;vertical-align:top;">session_id_pr_1</td><td style="vertical-align:top;">:</td><td><div>127.0.0.1-6f048108-58b8-4fef-aa31-c3926d727987<table><tr><td style="font-weight:bold;vertical-align:top;">comment</td><td style="vertical-align:top;">:</td><td><div></div></td></tr><tr><td style="font-weight:bold;vertical-align:top;">domain</td><td style="vertical-align:top;">:</td><td><div></div></td></tr><tr><td style="font-weight:bold;vertical-align:top;">expires</td><td style="vertical-align:top;">:</td><td><div></div></td></tr><tr><td style="font-weight:bold;vertical-align:top;">httponly</td><td style="vertical-align:top;">:</td><td><div></div></td></tr><tr><td style="font-weight:bold;vertical-align:top;">max-age</td><td style="vertical-align:top;">:</td><td><div></div></td></tr><tr><td style="font-weight:bold;vertical-align:top;">path</td><td style="vertical-align:top;">:</td><td><div></div></td></tr><tr><td style="font-weight:bold;vertical-align:top;">secure</td><td style="vertical-align:top;">:</td><td><div></div></td></tr><tr><td style="font-weight:bold;vertical-align:top;">version</td><td style="vertical-align:top;">:</td><td><div></div></td></tr></table></div></td></tr><tr><td style="font-weight:bold;vertical-align:top;">session_id_pr_3</td><td style="vertical-align:top;">:</td><td><div>127.0.0.1-bcbede79-f173-48d7-8fad-4c625a2d365d<table><tr><td style="font-weight:bold;vertical-align:top;">comment</td><td style="vertical-align:top;">:</td><td><div></div></td></tr><tr><td style="font-weight:bold;vertical-align:top;">domain</td><td style="vertical-align:top;">:</td><td><div></div></td></tr><tr><td style="font-weight:bold;vertical-align:top;">expires</td><td style="vertical-align:top;">:</td><td><div></div></td></tr><tr><td style="font-weight:bold;vertical-align:top;">httponly</td><td style="vertical-align:top;">:</td><td><div></div></td></tr><tr><td style="font-weight:bold;vertical-align:top;">max-age</td><td style="vertical-align:top;">:</td><td><div></div></td></tr><tr><td style="font-weight:bold;vertical-align:top;">path</td><td style="vertical-align:top;">:</td><td><div></div></td></tr><tr><td style="font-weight:bold;vertical-align:top;">secure</td><td style="vertical-align:top;">:</td><td><div></div></td></tr><tr><td style="font-weight:bold;vertical-align:top;">version</td><td style="vertical-align:top;">:</td><td><div></div></td></tr></table></div></td></tr><tr><td style="font-weight:bold;vertical-align:top;">session_id_pr_4</td><td style="vertical-align:top;">:</td><td><div>127.0.0.1-40960455-a4ba-4e5c-96da-bf068329d2af<table><tr><td style="font-weight:bold;vertical-align:top;">comment</td><td style="vertical-align:top;">:</td><td><div></div></td></tr><tr><td style="font-weight:bold;vertical-align:top;">domain</td><td style="vertical-align:top;">:</td><td><div></div></td></tr><tr><td style="font-weight:bold;vertical-align:top;">expires</td><td style="vertical-align:top;">:</td><td><div></div></td></tr><tr><td style="font-weight:bold;vertical-align:top;">httponly</td><td style="vertical-align:top;">:</td><td><div></div></td></tr><tr><td style="font-weight:bold;vertical-align:top;">max-age</td><td style="vertical-align:top;">:</td><td><div></div></td></tr><tr><td style="font-weight:bold;vertical-align:top;">path</td><td style="vertical-align:top;">:</td><td><div></div></td></tr><tr><td style="font-weight:bold;vertical-align:top;">secure</td><td style="vertical-align:top;">:</td><td><div></div></td></tr><tr><td style="font-weight:bold;vertical-align:top;">version</td><td style="vertical-align:top;">:</td><td><div></div></td></tr></table></div></td></tr><tr><td style="font-weight:bold;vertical-align:top;">session_id_tennis_club</td><td style="vertical-align:top;">:</td><td><div>127.0.0.1-aacb3ac5-1c9e-412e-9e31-5153769256d6<table><tr><td style="font-weight:bold;vertical-align:top;">comment</td><td style="vertical-align:top;">:</td><td><div></div></td></tr><tr><td style="font-weight:bold;vertical-align:top;">domain</td><td style="vertical-align:top;">:</td><td><div></div></td></tr><tr><td style="font-weight:bold;vertical-align:top;">expires</td><td style="vertical-align:top;">:</td><td><div></div></td></tr><tr><td style="font-weight:bold;vertical-align:top;">httponly</td><td style="vertical-align:top;">:</td><td><div></div></td></tr><tr><td style="font-weight:bold;vertical-align:top;">max-age</td><td style="vertical-align:top;">:</td><td><div></div></td></tr><tr><td style="font-weight:bold;vertical-align:top;">path</td><td style="vertical-align:top;">:</td><td><div></div></td></tr><tr><td style="font-weight:bold;vertical-align:top;">secure</td><td style="vertical-align:top;">:</td><td><div></div></td></tr><tr><td style="font-weight:bold;vertical-align:top;">version</td><td style="vertical-align:top;">:</td><td><div></div></td></tr></table></div></td></tr><tr><td style="font-weight:bold;vertical-align:top;">session_id_welcome</td><td style="vertical-align:top;">:</td><td><div>127.0.0.1-19452361-4d68-4af7-b3f0-6b4ce6007c25<table><tr><td style="font-weight:bold;vertical-align:top;">comment</td><td style="vertical-align:top;">:</td><td><div></div></td></tr><tr><td style="font-weight:bold;vertical-align:top;">domain</td><td style="vertical-align:top;">:</td><td><div></div></td></tr><tr><td style="font-weight:bold;vertical-align:top;">expires</td><td style="vertical-align:top;">:</td><td><div></div></td></tr><tr><td style="font-weight:bold;vertical-align:top;">httponly</td><td style="vertical-align:top;">:</td><td><div></div></td></tr><tr><td style="font-weight:bold;vertical-align:top;">max-age</td><td style="vertical-align:top;">:</td><td><div></div></td></tr><tr><td style="font-weight:bold;vertical-align:top;">path</td><td style="vertical-align:top;">:</td><td><div></div></td></tr><tr><td style="font-weight:bold;vertical-align:top;">secure</td><td style="vertical-align:top;">:</td><td><div></div></td></tr><tr><td style="font-weight:bold;vertical-align:top;">version</td><td style="vertical-align:top;">:</td><td><div></div></td></tr></table></div></td></tr></table></div></td></tr><tr><td style="font-weight:bold;vertical-align:top;">env</td><td style="vertical-align:top;">:</td><td><div><table><tr><td style="font-weight:bold;vertical-align:top;">HTTP_ACCEPT</td><td style="vertical-align:top;">:</td><td><div>text/html,application/xhtml+xml,application/xml;q=0.9,image/webp,*/*;q=0.8</div></td></tr><tr><td style="font-weight:bold;vertical-align:top;">HTTP_ACCEPT_ENCODING</td><td style="vertical-align:top;">:</td><td><div>gzip,deflate,sdch</div></td></tr><tr><td style="font-weight:bold;vertical-align:top;">HTTP_ACCEPT_LANGUAGE</td><td style="vertical-align:top;">:</td><td><div>en-US,en;q=0.8</div></td></tr><tr><td style="font-weight:bold;vertical-align:top;">HTTP_CACHE_CONTROL</td><td style="vertical-align:top;">:</td><td><div>max-age=0</div></td></tr><tr><td style="font-weight:bold;vertical-align:top;">HTTP_CONNECTION</td><td style="vertical-align:top;">:</td><td><div>keep-alive</div></td></tr><tr><td style="font-weight:bold;vertical-align:top;">HTTP_COOKIE</td><td style="vertical-align:top;">:</td><td><div>session_id_first_review=127.0.0.1-78b0cdae-9295-4e6f-99d5-efcdd3ffd16c; session_id_final_project=127.0.0.1-f2110f8b-62bb-40a7-994b-96ba8a3535b4; session_id_pr_4=127.0.0.1-40960455-a4ba-4e5c-96da-bf068329d2af; session_id_pr_3=127.0.0.1-bcbede79-f173-48d7-8fad-4c625a2d365d; session_id_pr_1=127.0.0.1-6f048108-58b8-4fef-aa31-c3926d727987; session_id_assignment_2=127.0.0.1-756121ec-1900-42c4-9d3c-29b71c8405f4; session_id_welcome=127.0.0.1-19452361-4d68-4af7-b3f0-6b4ce6007c25; session_id_asg_2=127.0.0.1-7535b31c-bd14-4efc-a57a-291bd4f4abef; session_id_tennis_club=127.0.0.1-aacb3ac5-1c9e-412e-9e31-5153769256d6; session_id_admin=127.0.0.1-115d8a30-de66-4b4f-8a53-2cf1d26de9f0</div></td></tr><tr><td style="font-weight:bold;vertical-align:top;">HTTP_HOST</td><td style="vertical-align:top;">:</td><td><div>127.0.0.1:8000</div></td></tr><tr><td style="font-weight:bold;vertical-align:top;">HTTP_REFERER</td><td style="vertical-align:top;">:</td><td><div>http://127.0.0.1:8000/tennis_club/default/index</div></td></tr><tr><td style="font-weight:bold;vertical-align:top;">HTTP_USER_AGENT</td><td style="vertical-align:top;">:</td><td><div>Mozilla/5.0 (Macintosh; Intel Mac OS X 10_8_5) AppleWebKit/537.36 (KHTML, like Gecko) Chrome/30.0.1599.101 Safari/537.36</div></td></tr><tr><td style="font-weight:bold;vertical-align:top;">PATH_INFO</td><td style="vertical-align:top;">:</td><td><div>/tennis_club/default/roster</div></td></tr><tr><td style="font-weight:bold;vertical-align:top;">QUERY_STRING</td><td style="vertical-align:top;">:</td><td><div></div></td></tr><tr><td style="font-weight:bold;vertical-align:top;">REMOTE_ADDR</td><td style="vertical-align:top;">:</td><td><div>127.0.0.1</div></td></tr><tr><td style="font-weight:bold;vertical-align:top;">REMOTE_PORT</td><td style="vertical-align:top;">:</td><td><div>64445</div></td></tr><tr><td style="font-weight:bold;vertical-align:top;">REQUEST_METHOD</td><td style="vertical-align:top;">:</td><td><div>GET</div></td></tr><tr><td style="font-weight:bold;vertical-align:top;">SCRIPT_NAME</td><td style="vertical-align:top;">:</td><td><div></div></td></tr><tr><td style="font-weight:bold;vertical-align:top;">SERVER_NAME</td><td style="vertical-align:top;">:</td><td><div>christians-MacBook-Pro.local</div></td></tr><tr><td style="font-weight:bold;vertical-align:top;">SERVER_PORT</td><td style="vertical-align:top;">:</td><td><div>8000</div></td></tr><tr><td style="font-weight:bold;vertical-align:top;">SERVER_PROTOCOL</td><td style="vertical-align:top;">:</td><td><div>HTTP/1.1</div></td></tr><tr><td style="font-weight:bold;vertical-align:top;">SERVER_SOFTWARE</td><td style="vertical-align:top;">:</td><td><div>Rocket 1.2.6</div></td></tr><tr><td style="font-weight:bold;vertical-align:top;">app_folders</td><td style="vertical-align:top;">:</td><td><div>set([&#x27;/Applications/web2py.app/Contents/Resources/applications/asg_2/&#x27;, &#x27;/Applications/web2py.app/Contents/Resources/applications/admin/&#x27;, &#x27;/Applications/web2py.app/Contents/Resources/applications/PR_1/&#x27;, &#x27;/Applications/web2py.app/Contents/Resources/applications/welcome/&#x27;, &#x27;/Applications/web2py.app/Contents/Resources/applications/Assignment_2/&#x27;, &#x27;/Applications/web2py.app/Contents/Resources/applications/tennis_club/&#x27;])</div></td></tr><tr><td style="font-weight:bold;vertical-align:top;">applications_parent</td><td style="vertical-align:top;">:</td><td><div>/Applications/web2py.app/Contents/Resources</div></td></tr><tr><td style="font-weight:bold;vertical-align:top;">cmd_args</td><td style="vertical-align:top;">:</td><td><div><table></table></div></td></tr><tr><td style="font-weight:bold;vertical-align:top;">cmd_options</td><td style="vertical-align:top;">:</td><td><div>&lt;Values at 0x1065e6b48: {&#x27;verbose&#x27;: False, &#x27;ip&#x27;: &#x27;127.0.0.1&#x27;, &#x27;debuglevel&#x27;: 30, &#x27;with_scheduler&#x27;: False, &#x27;ips&#x27;: [&#x27;192.168.1.11&#x27;, &#x27;fe80::5626:96ff:fedd:8f27%en0&#x27;], &#x27;shutdown_timeout&#x27;: 5, &#x27;taskbar&#x27;: False, &#x27;with_coverage&#x27;: False, &#x27;port&#x27;: 8000, &#x27;maxthreads&#x27;: None, &#x27;softcron&#x27;: False, &#x27;server_name&#x27;: &#x27;christians-MacBook-Pro.local&#x27;, &#x27;bpython&#x27;: False, &#x27;nogui&#x27;: False, &#x27;pid_filename&#x27;: &#x27;httpserver.pid&#x27;, &#x27;extcron&#x27;: False, &#x27;runcron&#x27;: False, &#x27;run_system_tests&#x27;: False, &#x27;test&#x27;: None, &#x27;folder&#x27;: &#x27;/Applications/web2py.app/Contents/Resources&#x27;, &#x27;config&#x27;: &#x27;&#x27;, &#x27;minthreads&#x27;: None, &#x27;winservice&#x27;: &#x27;&#x27;, &#x27;shell&#x27;: None, &#x27;run&#x27;: &#x27;&#x27;, &#x27;log_filename&#x27;: &#x27;httpserver.log&#x27;, &#x27;profiler_dir&#x27;: None, &#x27;args&#x27;: [&#x27;&#x27;], &#x27;socket_timeout&#x27;: 5, &#x27;ssl_ca_certificate&#x27;: None, &#x27;scheduler&#x27;: None, &#x27;interfaces&#x27;: None, &#x27;ssl_private_key&#x27;: &#x27;&#x27;, &#x27;scheduler_groups&#x27;: None, &#x27;password&#x27;: &#x27;&lt;ask&gt;&#x27;, &#x27;request_queue_size&#x27;: 5, &#x27;ssl_certificate&#x27;: &#x27;&#x27;, &#x27;cronjob&#x27;: False, &#x27;numthreads&#x27;: None, &#x27;quiet&#x27;: False, &#x27;import_models&#x27;: False, &#x27;timeout&#x27;: 10, &#x27;plain&#x27;: False, &#x27;nobanner&#x27;: False}&gt;</div></td></tr><tr><td style="font-weight:bold;vertical-align:top;">db_sessions</td><td style="vertical-align:top;">:</td><td><div>set([])</div></td></tr><tr><td style="font-weight:bold;vertical-align:top;">debugging</td><td style="vertical-align:top;">:</td><td><div>False</div></td></tr><tr><td style="font-weight:bold;vertical-align:top;">gluon_parent</td><td style="vertical-align:top;">:</td><td><div>/Applications/web2py.app/Contents/Resources</div></td></tr><tr><td style="font-weight:bold;vertical-align:top;">http_accept</td><td style="vertical-align:top;">:</td><td><div>text/html,application/xhtml+xml,application/xml;q=0.9,image/webp,*/*;q=0.8</div></td></tr><tr><td style="font-weight:bold;vertical-align:top;">http_accept_encoding</td><td style="vertical-align:top;">:</td><td><div>gzip,deflate,sdch</div></td></tr><tr><td style="font-weight:bold;vertical-align:top;">http_accept_language</td><td style="vertical-align:top;">:</td><td><div>en-US,en;q=0.8</div></td></tr><tr><td style="font-weight:bold;vertical-align:top;">http_cache_control</td><td style="vertical-align:top;">:</td><td><div>max-age=0</div></td></tr><tr><td style="font-weight:bold;vertical-align:top;">http_connection</td><td style="vertical-align:top;">:</td><td><div>keep-alive</div></td></tr><tr><td style="font-weight:bold;vertical-align:top;">http_cookie</td><td style="vertical-align:top;">:</td><td><div>session_id_first_review=127.0.0.1-78b0cdae-9295-4e6f-99d5-efcdd3ffd16c; session_id_final_project=127.0.0.1-f2110f8b-62bb-40a7-994b-96ba8a3535b4; session_id_pr_4=127.0.0.1-40960455-a4ba-4e5c-96da-bf068329d2af; session_id_pr_3=127.0.0.1-bcbede79-f173-48d7-8fad-4c625a2d365d; session_id_pr_1=127.0.0.1-6f048108-58b8-4fef-aa31-c3926d727987; session_id_assignment_2=127.0.0.1-756121ec-1900-42c4-9d3c-29b71c8405f4; session_id_welcome=127.0.0.1-19452361-4d68-4af7-b3f0-6b4ce6007c25; session_id_asg_2=127.0.0.1-7535b31c-bd14-4efc-a57a-291bd4f4abef; session_id_tennis_club=127.0.0.1-aacb3ac5-1c9e-412e-9e31-5153769256d6; session_id_admin=127.0.0.1-115d8a30-de66-4b4f-8a53-2cf1d26de9f0</div></td></tr><tr><td style="font-weight:bold;vertical-align:top;">http_host</td><td style="vertical-align:top;">:</td><td><div>127.0.0.1:8000</div></td></tr><tr><td style="font-weight:bold;vertical-align:top;">http_referer</td><td style="vertical-align:top;">:</td><td><div>http://127.0.0.1:8000/tennis_club/default/index</div></td></tr><tr><td style="font-weight:bold;vertical-align:top;">http_user_agent</td><td style="vertical-align:top;">:</td><td><div>Mozilla/5.0 (Macintosh; Intel Mac OS X 10_8_5) AppleWebKit/537.36 (KHTML, like Gecko) Chrome/30.0.1599.101 Safari/537.36</div></td></tr><tr><td style="font-weight:bold;vertical-align:top;">is_jython</td><td style="vertical-align:top;">:</td><td><div>False</div></td></tr><tr><td style="font-weight:bold;vertical-align:top;">is_pypy</td><td style="vertical-align:top;">:</td><td><div>False</div></td></tr><tr><td style="font-weight:bold;vertical-align:top;">is_source</td><td style="vertical-align:top;">:</td><td><div>True</div></td></tr><tr><td style="font-weight:bold;vertical-align:top;">local_hosts</td><td style="vertical-align:top;">:</td><td><div><table><tr><td><div>192.168.1.11</div></td></tr><tr><td><div>::ffff:127.0.0.1</div></td></tr><tr><td><div>fe80::5626:96ff:fedd:8f27%en0</div></td></tr><tr><td><div>christians-MacBook-Pro.local</div></td></tr><tr><td><div>::1</div></td></tr><tr><td><div>127.0.0.1</div></td></tr></table></div></td></tr><tr><td style="font-weight:bold;vertical-align:top;">path_info</td><td style="vertical-align:top;">:</td><td><div>/tennis_club/default/roster</div></td></tr><tr><td style="font-weight:bold;vertical-align:top;">query_string</td><td style="vertical-align:top;">:</td><td><div></div></td></tr><tr><td style="font-weight:bold;vertical-align:top;">remote_addr</td><td style="vertical-align:top;">:</td><td><div>127.0.0.1</div></td></tr><tr><td style="font-weight:bold;vertical-align:top;">remote_port</td><td style="vertical-align:top;">:</td><td><div>64445</div></td></tr><tr><td style="font-weight:bold;vertical-align:top;">request_method</td><td style="vertical-align:top;">:</td><td><div>GET</div></td></tr><tr><td style="font-weight:bold;vertical-align:top;">request_uri</td><td style="vertical-align:top;">:</td><td><div>/tennis_club/default/roster</div></td></tr><tr><td style="font-weight:bold;vertical-align:top;">script_name</td><td style="vertical-align:top;">:</td><td><div></div></td></tr><tr><td style="font-weight:bold;vertical-align:top;">server_name</td><td style="vertical-align:top;">:</td><td><div>christians-MacBook-Pro.local</div></td></tr><tr><td style="font-weight:bold;vertical-align:top;">server_port</td><td style="vertical-align:top;">:</td><td><div>8000</div></td></tr><tr><td style="font-weight:bold;vertical-align:top;">server_protocol</td><td style="vertical-align:top;">:</td><td><div>HTTP/1.1</div></td></tr><tr><td style="font-weight:bold;vertical-align:top;">server_software</td><td style="vertical-align:top;">:</td><td><div>Rocket 1.2.6</div></td></tr><tr><td style="font-weight:bold;vertical-align:top;">web2py_path</td><td style="vertical-align:top;">:</td><td><div>/Applications/web2py.app/Contents/Resources</div></td></tr><tr><td style="font-weight:bold;vertical-align:top;">web2py_version</td><td style="vertical-align:top;">:</td><td><div>2.7.4-stable+timestamp.2013.10.14.15.16.29</div></td></tr><tr><td style="font-weight:bold;vertical-align:top;">wsgi.errors</td><td style="vertical-align:top;">:</td><td><div>&lt;open file &#x27;&lt;stderr&gt;&#x27;, mode &#x27;w&#x27; at 0x10041e270&gt;</div></td></tr><tr><td style="font-weight:bold;vertical-align:top;">wsgi.file_wrapper</td><td style="vertical-align:top;">:</td><td><div>&lt;class wsgiref.util.FileWrapper at 0x106594d50&gt;</div></td></tr><tr><td style="font-weight:bold;vertical-align:top;">wsgi.input</td><td style="vertical-align:top;">:</td><td><div>&lt;socket._fileobject object at 0x10d250e50&gt;</div></td></tr><tr><td style="font-weight:bold;vertical-align:top;">wsgi.multiprocess</td><td style="vertical-align:top;">:</td><td><div>False</div></td></tr><tr><td style="font-weight:bold;vertical-align:top;">wsgi.multithread</td><td style="vertical-align:top;">:</td><td><div>True</div></td></tr><tr><td style="font-weight:bold;vertical-align:top;">wsgi.run_once</td><td style="vertical-align:top;">:</td><td><div>False</div></td></tr><tr><td style="font-weight:bold;vertical-align:top;">wsgi.url_scheme</td><td style="vertical-align:top;">:</td><td><div>http</div></td></tr><tr><td style="font-weight:bold;vertical-align:top;">wsgi.version</td><td style="vertical-align:top;">:</td><td><div><table><tr><td><div>1</div></td></tr><tr><td><div>0</div></td></tr></table></div></td></tr><tr><td style="font-weight:bold;vertical-align:top;">wsgi_errors</td><td style="vertical-align:top;">:</td><td><div>&lt;open file &#x27;&lt;stderr&gt;&#x27;, mode &#x27;w&#x27; at 0x10041e270&gt;</div></td></tr><tr><td style="font-weight:bold;vertical-align:top;">wsgi_file_wrapper</td><td style="vertical-align:top;">:</td><td><div>&lt;class wsgiref.util.FileWrapper at 0x106594d50&gt;</div></td></tr><tr><td style="font-weight:bold;vertical-align:top;">wsgi_input</td><td style="vertical-align:top;">:</td><td><div>&lt;socket._fileobject object at 0x10d250e50&gt;</div></td></tr><tr><td style="font-weight:bold;vertical-align:top;">wsgi_multiprocess</td><td style="vertical-align:top;">:</td><td><div>False</div></td></tr><tr><td style="font-weight:bold;vertical-align:top;">wsgi_multithread</td><td style="vertical-align:top;">:</td><td><div>True</div></td></tr><tr><td style="font-weight:bold;vertical-align:top;">wsgi_run_once</td><td style="vertical-align:top;">:</td><td><div>False</div></td></tr><tr><td style="font-weight:bold;vertical-align:top;">wsgi_url_scheme</td><td style="vertical-align:top;">:</td><td><div>http</div></td></tr><tr><td style="font-weight:bold;vertical-align:top;">wsgi_version</td><td style="vertical-align:top;">:</td><td><div><table><tr><td><div>1</div></td></tr><tr><td><div>0</div></td></tr></table></div></td></tr></table></div></td></tr><tr><td style="font-weight:bold;vertical-align:top;">extension</td><td style="vertical-align:top;">:</td><td><div>html</div></td></tr><tr><td style="font-weight:bold;vertical-align:top;">folder</td><td style="vertical-align:top;">:</td><td><div>/Applications/web2py.app/Contents/Resources/applications/tennis_club/</div></td></tr><tr><td style="font-weight:bold;vertical-align:top;">function</td><td style="vertical-align:top;">:</td><td><div>roster</div></td></tr><tr><td style="font-weight:bold;vertical-align:top;">global_settings</td><td style="vertical-align:top;">:</td><td><div><table><tr><td style="font-weight:bold;vertical-align:top;">app_folders</td><td style="vertical-align:top;">:</td><td><div>set([&#x27;/Applications/web2py.app/Contents/Resources/applications/asg_2/&#x27;, &#x27;/Applications/web2py.app/Contents/Resources/applications/admin/&#x27;, &#x27;/Applications/web2py.app/Contents/Resources/applications/PR_1/&#x27;, &#x27;/Applications/web2py.app/Contents/Resources/applications/welcome/&#x27;, &#x27;/Applications/web2py.app/Contents/Resources/applications/Assignment_2/&#x27;, &#x27;/Applications/web2py.app/Contents/Resources/applications/tennis_club/&#x27;])</div></td></tr><tr><td style="font-weight:bold;vertical-align:top;">applications_parent</td><td style="vertical-align:top;">:</td><td><div>/Applications/web2py.app/Contents/Resources</div></td></tr><tr><td style="font-weight:bold;vertical-align:top;">cmd_args</td><td style="vertical-align:top;">:</td><td><div><table></table></div></td></tr><tr><td style="font-weight:bold;vertical-align:top;">cmd_options</td><td style="vertical-align:top;">:</td><td><div>&lt;Values at 0x1065e6b48: {&#x27;verbose&#x27;: False, &#x27;ip&#x27;: &#x27;127.0.0.1&#x27;, &#x27;debuglevel&#x27;: 30, &#x27;with_scheduler&#x27;: False, &#x27;ips&#x27;: [&#x27;192.168.1.11&#x27;, &#x27;fe80::5626:96ff:fedd:8f27%en0&#x27;], &#x27;shutdown_timeout&#x27;: 5, &#x27;taskbar&#x27;: False, &#x27;with_coverage&#x27;: False, &#x27;port&#x27;: 8000, &#x27;maxthreads&#x27;: None, &#x27;softcron&#x27;: False, &#x27;server_name&#x27;: &#x27;christians-MacBook-Pro.local&#x27;, &#x27;bpython&#x27;: False, &#x27;nogui&#x27;: False, &#x27;pid_filename&#x27;: &#x27;httpserver.pid&#x27;, &#x27;extcron&#x27;: False, &#x27;runcron&#x27;: False, &#x27;run_system_tests&#x27;: False, &#x27;test&#x27;: None, &#x27;folder&#x27;: &#x27;/Applications/web2py.app/Contents/Resources&#x27;, &#x27;config&#x27;: &#x27;&#x27;, &#x27;minthreads&#x27;: None, &#x27;winservice&#x27;: &#x27;&#x27;, &#x27;shell&#x27;: None, &#x27;run&#x27;: &#x27;&#x27;, &#x27;log_filename&#x27;: &#x27;httpserver.log&#x27;, &#x27;profiler_dir&#x27;: None, &#x27;args&#x27;: [&#x27;&#x27;], &#x27;socket_timeout&#x27;: 5, &#x27;ssl_ca_certificate&#x27;: None, &#x27;scheduler&#x27;: None, &#x27;interfaces&#x27;: None, &#x27;ssl_private_key&#x27;: &#x27;&#x27;, &#x27;scheduler_groups&#x27;: None, &#x27;password&#x27;: &#x27;&lt;ask&gt;&#x27;, &#x27;request_queue_size&#x27;: 5, &#x27;ssl_certificate&#x27;: &#x27;&#x27;, &#x27;cronjob&#x27;: False, &#x27;numthreads&#x27;: None, &#x27;quiet&#x27;: False, &#x27;import_models&#x27;: False, &#x27;timeout&#x27;: 10, &#x27;plain&#x27;: False, &#x27;nobanner&#x27;: False}&gt;</div></td></tr><tr><td style="font-weight:bold;vertical-align:top;">db_sessions</td><td style="vertical-align:top;">:</td><td><div>set([])</div></td></tr><tr><td style="font-weight:bold;vertical-align:top;">debugging</td><td style="vertical-align:top;">:</td><td><div>False</div></td></tr><tr><td style="font-weight:bold;vertical-align:top;">gluon_parent</td><td style="vertical-align:top;">:</td><td><div>/Applications/web2py.app/Contents/Resources</div></td></tr><tr><td style="font-weight:bold;vertical-align:top;">is_jython</td><td style="vertical-align:top;">:</td><td><div>False</div></td></tr><tr><td style="font-weight:bold;vertical-align:top;">is_pypy</td><td style="vertical-align:top;">:</td><td><div>False</div></td></tr><tr><td style="font-weight:bold;vertical-align:top;">is_source</td><td style="vertical-align:top;">:</td><td><div>True</div></td></tr><tr><td style="font-weight:bold;vertical-align:top;">local_hosts</td><td style="vertical-align:top;">:</td><td><div><table><tr><td><div>192.168.1.11</div></td></tr><tr><td><div>::ffff:127.0.0.1</div></td></tr><tr><td><div>fe80::5626:96ff:fedd:8f27%en0</div></td></tr><tr><td><div>christians-MacBook-Pro.local</div></td></tr><tr><td><div>::1</div></td></tr><tr><td><div>127.0.0.1</div></td></tr></table></div></td></tr><tr><td style="font-weight:bold;vertical-align:top;">web2py_version</td><td style="vertical-align:top;">:</td><td><div>2.7.4-stable+timestamp.2013.10.14.15.16.29</div></td></tr></table></div></td></tr><tr><td style="font-weight:bold;vertical-align:top;">is_https</td><td style="vertical-align:top;">:</td><td><div>False</div></td></tr><tr><td style="font-weight:bold;vertical-align:top;">is_local</td><td style="vertical-align:top;">:</td><td><div>True</div></td></tr><tr><td style="font-weight:bold;vertical-align:top;">is_restful</td><td style="vertical-align:top;">:</td><td><div>False</div></td></tr><tr><td style="font-weight:bold;vertical-align:top;">now</td><td style="vertical-align:top;">:</td><td><div>datetime.datetime(2013, 11, 18, 10, 48, 32, 404944)</div></td></tr><tr><td style="font-weight:bold;vertical-align:top;">raw_args</td><td style="vertical-align:top;">:</td><td><div></div></td></tr><tr><td style="font-weight:bold;vertical-align:top;">raw_extension</td><td style="vertical-align:top;">:</td><td><div>None</div></td></tr><tr><td style="font-weight:bold;vertical-align:top;">url</td><td style="vertical-align:top;">:</td><td><div>/tennis_club/default/roster</div></td></tr><tr><td style="font-weight:bold;vertical-align:top;">utcnow</td><td style="vertical-align:top;">:</td><td><div>datetime.datetime(2013, 11, 18, 18, 48, 32, 404956)</div></td></tr><tr><td style="font-weight:bold;vertical-align:top;">uuid</td><td style="vertical-align:top;">:</td><td><div>tennis_club/127.0.0.1.2013-11-18.10-48-32.0dce6ddc-0105-41cf-ae19-fc6dd729d44a</div></td></tr><tr><td style="font-weight:bold;vertical-align:top;">wsgi</td><td style="vertical-align:top;">:</td><td><div>&lt;gluon.main.LazyWSGI object at 0x10d26bf90&gt;</div></td></tr></table></div>'
tRp56
sS'frames'
p57
(lp58
(dp59
S'file'
p60
S'/Applications/web2py.app/Contents/Resources/gluon/main.py'
p61
sS'dump'
p62
(dp63
sS'lnum'
p64
I446
sS'lines'
p65
(dp66
I448
S'            except HTTP, http_response:'
p67
sI449
S''
sI450
S'                if static_file:'
p68
sI441
S'                if global_settings.debugging and app != "admin":'
p69
sI442
S'                    import gluon.debug'
p70
sI443
S'                    # activate the debugger'
p71
sI444
S'                    gluon.debug.dbg.do_debug(mainpyfile=request.folder)'
p72
sI445
S''
sI446
S'                serve_controller(request, response, session)'
p73
sI447
S''
ssS'call'
p74
S"(environ={'HTTP_ACCEPT': 'text/html,application/xhtml+xml,application/xml;q=0.9,image/webp,*/*;q=0.8', 'HTTP_ACCEPT_ENCODING': 'gzip,deflate,sdch', 'HTTP_ACCEPT_LANGUAGE': 'en-US,en;q=0.8', 'HTTP_CACHE_CONTROL': 'max-age=0', 'HTTP_CONNECTION': 'keep-alive', 'HTTP_COOKIE': 'session_id_first_review=127.0.0.1-78b0cdae-9295-...in=127.0.0.1-115d8a30-de66-4b4f-8a53-2cf1d26de9f0', 'HTTP_HOST': '127.0.0.1:8000', 'HTTP_REFERER': 'http://127.0.0.1:8000/tennis_club/default/index', 'HTTP_USER_AGENT': 'Mozilla/5.0 (Macintosh; Intel Mac OS X 10_8_5) A...L, like Gecko) Chrome/30.0.1599.101 Safari/537.36', 'PATH_INFO': '/tennis_club/default/roster', ...}, responder=<function responder2>)"
p75
sS'func'
p76
S'wsgibase'
p77
sa(dp78
g60
S'/Applications/web2py.app/Contents/Resources/gluon/main.py'
p79
sg62
(dp80
sg64
I196
sg65
(dp81
I192
S'    page = run_controller_in(request.controller, request.function, environment)'
p82
sI193
S'    if isinstance(page, dict):'
p83
sI194
S'        response._vars = page'
p84
sI195
S'        response._view_environment.update(page)'
p85
sI196
S'        run_view_in(response._view_environment)'
p86
sI197
S'        page = response.body.getvalue()'
p87
sI198
S'    # logic to garbage collect after exec, not always, once every 100 requests'
p88
sI199
S'    global requests'
p89
sI200
S"    requests = ('requests' in globals()) and (requests + 1) % 100 or 0"
p90
sI191
S'    response._view_environment = copy.copy(environment)'
p91
ssg74
S"(request=<Storage {'_vars': <Storage {'records': []}>, 'f...p/Contents/Resources/applications/tennis_club/'}>, response=<Storage {'body': <cStringIO.StringO object at 0... at 0x10d24e140>, 'view': 'default/roster.html'}>, session=<Storage {'_formkey[login]': ['eb41a324-d949-45a...{'version': '30.0.1599.101', 'name': 'Chrome'}}}>)"
p92
sg76
S'serve_controller'
p93
sa(dp94
g60
S'/Applications/web2py.app/Contents/Resources/gluon/compileapp.py'
p95
sg62
(dp96
sg64
I690
sg65
(dp97
I685
S"                                            pjoin(folder, 'views'),"
p98
sI686
S'                                            context=environment), layer))'
p99
sI687
S'        else:'
p100
sI688
S'            ccode = parse_template(view,'
p101
sI689
S"                                   pjoin(folder, 'views'),"
p102
sI690
S'                                   context=environment)'
p103
sI691
S'        restricted(ccode, environment, layer)'
p104
sI692
S''
sI693
S''
sI694
S'def remove_compiled_application(folder):'
p105
ssg74
S"(environment={'A': <class 'gluon.html.A'>, 'ANY_OF': <class 'gluon.validators.ANY_OF'>, 'Auth': <class 'gluon.tools.Auth'>, 'B': <class 'gluon.html.B'>, 'BEAUTIFY': <class 'gluon.html.BEAUTIFY'>, 'BODY': <class 'gluon.html.BODY'>, 'BR': <class 'gluon.html.BR'>, 'BUTTON': <class 'gluon.html.BUTTON'>, 'CAT': <class 'gluon.html.CAT'>, 'CENTER': <class 'gluon.html.CENTER'>, ...})"
p106
sg76
S'run_view_in'
p107
sa(dp108
g60
S'/Applications/web2py.app/Contents/Resources/gluon/template.py'
p109
sg62
(dp110
sg64
I790
sg65
(dp111
I785
S"            raise RestrictedError(filename, '', 'Unable to find the file')"
p112
sI786
S'    else:'
p113
sI787
S'        text = filename.read()'
p114
sI788
S''
sI789
S'    # Use the file contents to get a parsed template and return it.'
p115
sI790
S'    return str(TemplateParser(text, context=context, path=path, lexers=lexers, delimiters=delimiters))'
p116
sI791
S''
sI792
S''
sI793
S'def get_parsed(text):'
p117
sI794
S'    """'
p118
ssg74
S"(filename='default/roster.html', path='/Applications/web2py.app/Contents/Resources/applications/tennis_club/views', context={'A': <class 'gluon.html.A'>, 'ANY_OF': <class 'gluon.validators.ANY_OF'>, 'Auth': <class 'gluon.tools.Auth'>, 'B': <class 'gluon.html.B'>, 'BEAUTIFY': <class 'gluon.html.BEAUTIFY'>, 'BODY': <class 'gluon.html.BODY'>, 'BR': <class 'gluon.html.BR'>, 'BUTTON': <class 'gluon.html.BUTTON'>, 'CAT': <class 'gluon.html.CAT'>, 'CENTER': <class 'gluon.html.CENTER'>, ...}, lexers={}, delimiters=('{{', '}}'))"
p119
sg76
S'parse_template'
p120
sa(dp121
g60
S'/Applications/web2py.app/Contents/Resources/gluon/template.py'
p122
sg62
(dp123
sg64
I316
sg65
(dp124
I320
S'        Return the parsed template with correct indentation.'
p125
sI311
S'        # This variable will hold a reference to every block'
p126
sI312
S'        # that we come across in this template'
p127
sI313
S'        self.blocks = {}'
p128
sI314
S''
sI315
S'        # Begin parsing.'
p129
sI316
S'        self.parse(text)'
p130
sI317
S''
sI318
S'    def to_string(self):'
p131
sI319
S'        """'
p132
ssg74
S"(self=<gluon.template.TemplateParser object>, text='{{extend layout.html}}\\n\\t{{=posts}}\\n\\n\\n', name='ParserContainer', context={'A': <class 'gluon.html.A'>, 'ANY_OF': <class 'gluon.validators.ANY_OF'>, 'Auth': <class 'gluon.tools.Auth'>, 'B': <class 'gluon.html.B'>, 'BEAUTIFY': <class 'gluon.html.BEAUTIFY'>, 'BODY': <class 'gluon.html.BODY'>, 'BR': <class 'gluon.html.BR'>, 'BUTTON': <class 'gluon.html.BUTTON'>, 'CAT': <class 'gluon.html.CAT'>, 'CENTER': <class 'gluon.html.CENTER'>, ...}, path='/Applications/web2py.app/Contents/Resources/applications/tennis_club/views', writer='response.write', lexers={}, delimiters=('{{', '}}'), _super_nodes=[])"
p133
sg76
g48
sa(dp134
g60
S'/Applications/web2py.app/Contents/Resources/gluon/template.py'
p135
sg62
(dp136
sg64
I761
sg65
(dp137
I756
S'            # Sometimes I miss C-Style pointers... I want my asterisk...'
p138
sI757
S'            self.child_super_nodes.remove(node)'
p139
sI758
S''
sI759
S'        # If we need to extend a template.'
p140
sI760
S'        if extend:'
p141
sI761
S'            self.extend(extend)'
p142
sI762
S''
sI763
S'# We need this for integration with gluon'
p143
sI764
S''
sI765
S''
ssg74
S"(self=<gluon.template.TemplateParser object>, text='{{extend layout.html}}\\n\\t{{=posts}}\\n\\n\\n')"
p144
sg76
S'parse'
p145
sa(dp146
g60
S'/Applications/web2py.app/Contents/Resources/gluon/template.py'
p147
sg62
(dp148
sg64
I476
sg65
(dp149
I480
S'        # We want to include any non-handled nodes.'
p150
sI471
S'        """'
p151
sI472
S'        Extend ``filename``. Anything not declared in a block defined by the'
p152
sI473
S'        parent will be placed in the parent templates ``{{include}}`` block.'
p153
sI474
S'        """'
p154
sI475
S'        # If no filename, create a dummy layout with only an {{include}}.'
p155
sI476
S"        text = self._get_file_text(filename) or '%sinclude%s' % tuple(self.delimiters)"
p156
sI477
S''
sI478
S'        # Create out nodes list to send to the parent'
p157
sI479
S'        super_nodes = []'
p158
ssg74
S"(self=<gluon.template.TemplateParser object>, filename='layout.html')"
p159
sg76
S'extend'
p160
sa(dp161
g60
S'/Applications/web2py.app/Contents/Resources/gluon/template.py'
p162
sg62
(dp163
sg64
I436
sg65
(dp164
I431
S'        if current and not "response" in context:'
p165
sI432
S'            context["response"] = getattr(current, \'response\', None)'
p166
sI433
S''
sI434
S'        # Get the filename; filename looks like ``"template.html"``.'
p167
sI435
S'        # We need to eval to remove the quotes and get the string type.'
p168
sI436
S'        filename = eval(filename, context)'
p169
sI437
S''
sI438
S'        # Allow empty filename for conditional extend and include directives.'
p170
sI439
S'        if not filename:'
p171
sI440
S"            return ''"
p172
ssg74
S"(self=<gluon.template.TemplateParser object>, filename='layout.html')"
p173
sg76
S'_get_file_text'
p174
sa(dp175
g60
S'/Applications/web2py.app/Contents/Resources/<string>'
p176
sg62
(dp177
sg64
I1
sg65
(dp178
sg74
S'()'
p179
sg76
S'<module>'
p180
sasS'pyver'
p181
S'Python 2.7.3: /Applications/web2py.app/Contents/MacOS/python (prefix: /Applications/web2py.app/Contents/Resources)'
p182
sS'session'
p183
g55
(S's\x9c\x00\x00\x00<div><table><tr><td style="font-weight:bold;vertical-align:top;">flash</td><td style="vertical-align:top;">:</td><td><div>None</div></td></tr></table></div>'
tRp184
sS'etype'
p185
S"<type 'exceptions.NameError'>"
p186
sS'date'
p187
S'Mon Nov 18 10:48:32 2013'
p188
sS'response'
p189
g55
(S's\x932\x00\x00<div><table><tr><td style="font-weight:bold;vertical-align:top;">body</td><td style="vertical-align:top;">:</td><td><div>&lt;cStringIO.StringO object at 0x109a0d570&gt;</div></td></tr><tr><td style="font-weight:bold;vertical-align:top;">cookies</td><td style="vertical-align:top;">:</td><td><div><table><tr><td style="font-weight:bold;vertical-align:top;">session_id_tennis_club</td><td style="vertical-align:top;">:</td><td><div>127.0.0.1-aacb3ac5-1c9e-412e-9e31-5153769256d6<table><tr><td style="font-weight:bold;vertical-align:top;">comment</td><td style="vertical-align:top;">:</td><td><div></div></td></tr><tr><td style="font-weight:bold;vertical-align:top;">domain</td><td style="vertical-align:top;">:</td><td><div></div></td></tr><tr><td style="font-weight:bold;vertical-align:top;">expires</td><td style="vertical-align:top;">:</td><td><div></div></td></tr><tr><td style="font-weight:bold;vertical-align:top;">httponly</td><td style="vertical-align:top;">:</td><td><div></div></td></tr><tr><td style="font-weight:bold;vertical-align:top;">max-age</td><td style="vertical-align:top;">:</td><td><div></div></td></tr><tr><td style="font-weight:bold;vertical-align:top;">path</td><td style="vertical-align:top;">:</td><td><div>/</div></td></tr><tr><td style="font-weight:bold;vertical-align:top;">secure</td><td style="vertical-align:top;">:</td><td><div></div></td></tr><tr><td style="font-weight:bold;vertical-align:top;">version</td><td style="vertical-align:top;">:</td><td><div></div></td></tr></table></div></td></tr></table></div></td></tr><tr><td style="font-weight:bold;vertical-align:top;">delimiters</td><td style="vertical-align:top;">:</td><td><div><table><tr><td><div>{{</div></td></tr><tr><td><div>}}</div></td></tr></table></div></td></tr><tr><td style="font-weight:bold;vertical-align:top;">files</td><td style="vertical-align:top;">:</td><td><div><table></table></div></td></tr><tr><td style="font-weight:bold;vertical-align:top;">flash</td><td style="vertical-align:top;">:</td><td><div></div></td></tr><tr><td style="font-weight:bold;vertical-align:top;">generic_patterns</td><td style="vertical-align:top;">:</td><td><div><table><tr><td><div>*</div></td></tr></table></div></td></tr><tr><td style="font-weight:bold;vertical-align:top;">google_analytics_id</td><td style="vertical-align:top;">:</td><td><div>None</div></td></tr><tr><td style="font-weight:bold;vertical-align:top;">headers</td><td style="vertical-align:top;">:</td><td><div><table><tr><td style="font-weight:bold;vertical-align:top;">X-Powered-By</td><td style="vertical-align:top;">:</td><td><div>web2py</div></td></tr></table></div></td></tr><tr><td style="font-weight:bold;vertical-align:top;">logo</td><td style="vertical-align:top;">:</td><td><div><a class="brand" data-w2p_disable_with="default" href="http://www.web2py.com/"><b>web<span>2</span>py</b>&trade;&nbsp;</a></div></td></tr><tr><td style="font-weight:bold;vertical-align:top;">menu</td><td style="vertical-align:top;">:</td><td><div><table><tr><td><div><table><tr><td><div>Home</div></td></tr><tr><td><div>False</div></td></tr><tr><td><div>/tennis_club/default/index</div></td></tr><tr><td><div><table></table></div></td></tr></table></div></td></tr><tr><td><div><table><tr><td><div><span class="highlighted">web2py</span></div></td></tr><tr><td><div>False</div></td></tr><tr><td><div>http://web2py.com</div></td></tr><tr><td><div><table><tr><td><div><table><tr><td><div>My Sites</div></td></tr><tr><td><div>False</div></td></tr><tr><td><div>/admin/default/site</div></td></tr></table></div></td></tr><tr><td><div><table><tr><td><div>This App</div></td></tr><tr><td><div>False</div></td></tr><tr><td><div>/admin/default/design/tennis_club</div></td></tr><tr><td><div>[(&lt;lazyT &#x27;Controller&#x27;&gt;, False, &#x27;/admin/default/edit/tennis_club/controllers/default.py&#x27;), (&lt;lazyT &#x27;View&#x27;&gt;, False, &#x27;/admin/default/edit/tennis_club/views/default/roster.html&#x27;), (&lt;lazyT &#x27;Layout&#x27;&gt;, False, &#x27;/admin/default/edit/tennis_club/views/layout.html&#x27;), (&lt;lazyT &#x27;Stylesheet&#x27;&gt;, False, &#x27;/admin/default/edit/tennis_club/static/css/web2py.css&#x27;), (&lt;lazyT &#x27;DB Model&#x27;&gt;, False, &#x27;/admin/default/edit/tennis_club/models/db.py&#x27;), (&lt;lazyT &#x27;Menu Model&#x27;&gt;, False, &#x27;/admin/default/edit/tennis_club/models/menu.py&#x27;), (&lt;lazyT &#x27;Database&#x27;&gt;, False, &#x27;/tennis_club/appadmin/index&#x27;), (&lt;lazyT &#x27;Errors&#x27;&gt;, False, &#x27;/admin/default/errors/tennis_club&#x27;), (&lt;lazyT &#x27;About&#x27;&gt;, False, &#x27;/admin/default/about/tennis_club&#x27;)]</div></td></tr></table></div></td></tr><tr><td><div><table><tr><td><div>web2py.com</div></td></tr><tr><td><div>False</div></td></tr><tr><td><div>http://www.web2py.com</div></td></tr><tr><td><div>[(&lt;lazyT &#x27;Download&#x27;&gt;, False, &#x27;http://www.web2py.com/examples/default/download&#x27;), (&lt;lazyT &#x27;Support&#x27;&gt;, False, &#x27;http://www.web2py.com/examples/default/support&#x27;), (&lt;lazyT &#x27;Demo&#x27;&gt;, False, &#x27;http://web2py.com/demo_admin&#x27;), (&lt;lazyT &#x27;Quick Examples&#x27;&gt;, False, &#x27;http://web2py.com/examples/default/examples&#x27;), (&lt;lazyT &#x27;FAQ&#x27;&gt;, False, &#x27;http://web2py.com/AlterEgo&#x27;), (&lt;lazyT &#x27;Videos&#x27;&gt;, False, &#x27;http://www.web2py.com/examples/default/videos/&#x27;), (&lt;lazyT &#x27;Free Applications&#x27;&gt;, False, &#x27;http://web2py.com/appliances&#x27;), (&lt;lazyT &#x27;Plugins&#x27;&gt;, False, &#x27;http://web2py.com/plugins&#x27;), (&lt;lazyT &#x27;Layouts&#x27;&gt;, False, &#x27;http://web2py.com/layouts&#x27;), (&lt;lazyT &#x27;Recipes&#x27;&gt;, False, &#x27;http://web2pyslices.com/&#x27;), (&lt;lazyT &#x27;Semantic&#x27;&gt;, False, &#x27;http://web2py.com/semantic&#x27;)]</div></td></tr></table></div></td></tr><tr><td><div><table><tr><td><div>Documentation</div></td></tr><tr><td><div>False</div></td></tr><tr><td><div>http://www.web2py.com/book</div></td></tr><tr><td><div>[(&lt;lazyT &#x27;Preface&#x27;&gt;, False, &#x27;http://www.web2py.com/book/default/chapter/00&#x27;), (&lt;lazyT &#x27;Introduction&#x27;&gt;, False, &#x27;http://www.web2py.com/book/default/chapter/01&#x27;), (&lt;lazyT &#x27;Python&#x27;&gt;, False, &#x27;http://www.web2py.com/book/default/chapter/02&#x27;), (&lt;lazyT &#x27;Overview&#x27;&gt;, False, &#x27;http://www.web2py.com/book/default/chapter/03&#x27;), (&lt;lazyT &#x27;The Core&#x27;&gt;, False, &#x27;http://www.web2py.com/book/default/chapter/04&#x27;), (&lt;lazyT &#x27;The Views&#x27;&gt;, False, &#x27;http://www.web2py.com/book/default/chapter/05&#x27;), (&lt;lazyT &#x27;Database&#x27;&gt;, False, &#x27;http://www.web2py.com/book/default/chapter/06&#x27;), (&lt;lazyT &#x27;Forms and Validators&#x27;&gt;, False, &#x27;http://www.web2py.com/book/default/chapter/07&#x27;), (&lt;lazyT &#x27;Email and SMS&#x27;&gt;, False, &#x27;http://www.web2py.com/book/default/chapter/08&#x27;), (&lt;lazyT &#x27;Access Control&#x27;&gt;, False, &#x27;http://www.web2py.com/book/default/chapter/09&#x27;), (&lt;lazyT &#x27;Services&#x27;&gt;, False, &#x27;http://www.web2py.com/book/default/chapter/10&#x27;), (&lt;lazyT &#x27;Ajax Recipes&#x27;&gt;, False, &#x27;http://www.web2py.com/book/default/chapter/11&#x27;), (&lt;lazyT &#x27;Components and Plugins&#x27;&gt;, False, &#x27;http://www.web2py.com/book/default/chapter/12&#x27;), (&lt;lazyT &#x27;Deployment Recipes&#x27;&gt;, False, &#x27;http://www.web2py.com/book/default/chapter/13&#x27;), (&lt;lazyT &#x27;Other Recipes&#x27;&gt;, False, &#x27;http://www.web2py.com/book/default/chapter/14&#x27;), (&lt;lazyT &#x27;Buy this book&#x27;&gt;, False, &#x27;http://stores.lulu.com/web2py&#x27;)]</div></td></tr></table></div></td></tr><tr><td><div><table><tr><td><div>Community</div></td></tr><tr><td><div>False</div></td></tr><tr><td><div>None</div></td></tr><tr><td><div>[(&lt;lazyT &#x27;Groups&#x27;&gt;, False, &#x27;http://www.web2py.com/examples/default/usergroups&#x27;), (&lt;lazyT &#x27;Twitter&#x27;&gt;, False, &#x27;http://twitter.com/web2py&#x27;), (&lt;lazyT &#x27;Live Chat&#x27;&gt;, False, &#x27;http://webchat.freenode.net/?channels=web2py&#x27;)]</div></td></tr></table></div></td></tr><tr><td><div><table><tr><td><div>Plugins</div></td></tr><tr><td><div>False</div></td></tr><tr><td><div>None</div></td></tr><tr><td><div>[(&#x27;plugin_wiki&#x27;, False, &#x27;http://web2py.com/examples/default/download&#x27;), (&lt;lazyT &#x27;Other Plugins&#x27;&gt;, False, &#x27;http://web2py.com/plugins&#x27;), (&lt;lazyT &#x27;Layout Plugins&#x27;&gt;, False, &#x27;http://web2py.com/layouts&#x27;)]</div></td></tr></table></div></td></tr></table></div></td></tr></table></div></td></tr></table></div></td></tr><tr><td style="font-weight:bold;vertical-align:top;">meta</td><td style="vertical-align:top;">:</td><td><div><table><tr><td style="font-weight:bold;vertical-align:top;">author</td><td style="vertical-align:top;">:</td><td><div>Your Name &lt;you@example.com&gt;</div></td></tr><tr><td style="font-weight:bold;vertical-align:top;">description</td><td style="vertical-align:top;">:</td><td><div>a cool new app</div></td></tr><tr><td style="font-weight:bold;vertical-align:top;">generator</td><td style="vertical-align:top;">:</td><td><div>Web2py Web Framework</div></td></tr><tr><td style="font-weight:bold;vertical-align:top;">keywords</td><td style="vertical-align:top;">:</td><td><div>web2py, python, framework</div></td></tr></table></div></td></tr><tr><td style="font-weight:bold;vertical-align:top;">models_to_run</td><td style="vertical-align:top;">:</td><td><div><table><tr><td><div>^\\w+\\.py$</div></td></tr><tr><td><div>^default/\\w+\\.py$</div></td></tr><tr><td><div>^default/roster/\\w+\\.py$</div></td></tr></table></div></td></tr><tr><td style="font-weight:bold;vertical-align:top;">postprocessing</td><td style="vertical-align:top;">:</td><td><div><table></table></div></td></tr><tr><td style="font-weight:bold;vertical-align:top;">session_client</td><td style="vertical-align:top;">:</td><td><div>127.0.0.1</div></td></tr><tr><td style="font-weight:bold;vertical-align:top;">session_cookie_compression_level</td><td style="vertical-align:top;">:</td><td><div>None</div></td></tr><tr><td style="font-weight:bold;vertical-align:top;">session_cookie_expires</td><td style="vertical-align:top;">:</td><td><div>None</div></td></tr><tr><td style="font-weight:bold;vertical-align:top;">session_cookie_key</td><td style="vertical-align:top;">:</td><td><div>None</div></td></tr><tr><td style="font-weight:bold;vertical-align:top;">session_data_name</td><td style="vertical-align:top;">:</td><td><div>session_data_tennis_club</div></td></tr><tr><td style="font-weight:bold;vertical-align:top;">session_file</td><td style="vertical-align:top;">:</td><td><div>&lt;open file &#x27;/Applications/web2py.app/Contents/Resources/applications/tennis_club/sessions/127.0.0.1-aacb3ac5-1c9e-412e-9e31-5153769256d6&#x27;, mode &#x27;rb+&#x27; at 0x109a8e540&gt;</div></td></tr><tr><td style="font-weight:bold;vertical-align:top;">session_filename</td><td style="vertical-align:top;">:</td><td><div>/Applications/web2py.app/Contents/Resources/applications/tennis_club/sessions/127.0.0.1-aacb3ac5-1c9e-412e-9e31-5153769256d6</div></td></tr><tr><td style="font-weight:bold;vertical-align:top;">session_hash</td><td style="vertical-align:top;">:</td><td><div>f778cc4327405f22e7c480a109a14dd5</div></td></tr><tr><td style="font-weight:bold;vertical-align:top;">session_id</td><td style="vertical-align:top;">:</td><td><div>127.0.0.1-aacb3ac5-1c9e-412e-9e31-5153769256d6</div></td></tr><tr><td style="font-weight:bold;vertical-align:top;">session_id_name</td><td style="vertical-align:top;">:</td><td><div>session_id_tennis_club</div></td></tr><tr><td style="font-weight:bold;vertical-align:top;">session_locked</td><td style="vertical-align:top;">:</td><td><div>True</div></td></tr><tr><td style="font-weight:bold;vertical-align:top;">session_masterapp</td><td style="vertical-align:top;">:</td><td><div>tennis_club</div></td></tr><tr><td style="font-weight:bold;vertical-align:top;">session_new</td><td style="vertical-align:top;">:</td><td><div>False</div></td></tr><tr><td style="font-weight:bold;vertical-align:top;">session_storage_type</td><td style="vertical-align:top;">:</td><td><div>file</div></td></tr><tr><td style="font-weight:bold;vertical-align:top;">status</td><td style="vertical-align:top;">:</td><td><div>200</div></td></tr><tr><td style="font-weight:bold;vertical-align:top;">subtitle</td><td style="vertical-align:top;">:</td><td><div></div></td></tr><tr><td style="font-weight:bold;vertical-align:top;">title</td><td style="vertical-align:top;">:</td><td><div>Tennis Club</div></td></tr><tr><td style="font-weight:bold;vertical-align:top;">view</td><td style="vertical-align:top;">:</td><td><div>default/roster.html</div></td></tr></table></div>'
tRp190
sS'locals'
p191
(dp192
S'Service'
p193
S"<class 'gluon.tools.Service'>"
p194
sS'OBJECT'
p195
S"<class 'gluon.html.OBJECT'>"
p196
sS'SQLDB'
p197
S"<class 'gluon.dal.DAL'>"
p198
sg183
S"<Storage {'_formkey[login]': ['eb41a324-d949-45a...{'version': '30.0.1599.101', 'name': 'Chrome'}}}>"
p199
sS'LINK'
p200
S"<class 'gluon.html.LINK'>"
p201
sS'BR'
p202
S"<class 'gluon.html.BR'>"
p203
sS'local_import'
p204
S'<function <lambda>>'
p205
sS'OPTGROUP'
p206
S"<class 'gluon.html.OPTGROUP'>"
p207
sS'__package__'
p208
S'None'
p209
sS'PRE'
p210
S"<class 'gluon.html.PRE'>"
p211
sS'IS_INT_IN_RANGE'
p212
S"<class 'gluon.validators.IS_INT_IN_RANGE'>"
p213
sS'IS_LOWER'
p214
S"<class 'gluon.validators.IS_LOWER'>"
p215
sS'IS_STRONG'
p216
S"<class 'gluon.validators.IS_STRONG'>"
p217
sS'cache'
p218
S'<gluon.cache.Cache object>'
p219
sS'IS_IN_DB'
p220
S"<class 'gluon.validators.IS_IN_DB'>"
p221
sS'TAG'
p222
S'<gluon.html.__TAG__ object>'
p223
sS'SQLField'
p224
S"<class 'gluon.dal.Field'>"
p225
sS'mail'
p226
S'<gluon.tools.Mail object>'
p227
sS'BODY'
p228
S"<class 'gluon.html.BODY'>"
p229
sS'IS_DATE_IN_RANGE'
p230
S"<class 'gluon.validators.IS_DATE_IN_RANGE'>"
p231
sS'IFRAME'
p232
S"<class 'gluon.html.IFRAME'>"
p233
sS'URL'
p234
S'<function URL>'
p235
sS'__file__'
p236
S"'/Applications/web2py.app/Contents/Resources/applications/tennis_club/models/tables.py'"
p237
sS'db'
p238
S'<DAL uri="sqlite://storage.sqlite">'
p239
sS'auth'
p240
S'<gluon.tools.Auth object>'
p241
sS'P'
S"<class 'gluon.html.P'>"
p242
sS'TFOOT'
p243
S"<class 'gluon.html.TFOOT'>"
p244
sS'XHTML'
p245
S"<class 'gluon.html.XHTML'>"
p246
sS'datetime'
p247
S"<type 'datetime.datetime'>"
p248
sS'ON'
p249
S'True'
p250
sS'OL'
p251
S"<class 'gluon.html.OL'>"
p252
sS'TEXTAREA'
p253
S"<class 'gluon.html.TEXTAREA'>"
p254
sS'MENU'
p255
S"<class 'gluon.html.MENU'>"
p256
sS'posts'
p257
S'<gluon.html.DIV object>'
p258
sS'get_name'
p259
S'<function get_name>'
p260
sS'IS_IMAGE'
p261
S"<class 'gluon.validators.IS_IMAGE'>"
p262
sS'EM'
p263
S"<class 'gluon.html.EM'>"
p264
sS'CODE'
p265
S"<class 'gluon.html.CODE'>"
p266
sS'HTTP'
p267
S"<class 'gluon.http.HTTP'>"
p268
sS'HR'
p269
S"<class 'gluon.html.HR'>"
p270
sS'IS_DATETIME'
p271
S"<class 'gluon.validators.IS_DATETIME'>"
p272
sS'STYLE'
p273
S"<class 'gluon.html.STYLE'>"
p274
sS'LABEL'
p275
S"<class 'gluon.html.LABEL'>"
p276
sS'CLEANUP'
p277
S"<class 'gluon.validators.CLEANUP'>"
p278
sS'plugins'
p279
S'<gluon.tools.PluginManager object>'
p280
sS'SELECT'
p281
S"<class 'gluon.html.SELECT'>"
p282
sS'use_janrain'
p283
S'<function use_janrain>'
p284
sS'CENTER'
p285
S"<class 'gluon.html.CENTER'>"
p286
sS'prettydate'
p287
S'<function prettydate>'
p288
sS'Crud'
p289
S"<class 'gluon.tools.Crud'>"
p290
sS'Auth'
p291
S"<class 'gluon.tools.Auth'>"
p292
sS'DEVELOPMENT_MENU'
p293
g250
sS'__builtins__'
p294
S"{'ArithmeticError': <type 'exceptions.ArithmeticError'>, 'AssertionError': <type 'exceptions.AssertionError'>, 'AttributeError': <type 'exceptions.AttributeError'>, 'BaseException': <type 'exceptions.BaseException'>, 'BufferError': <type 'exceptions.BufferError'>, 'BytesWarning': <type 'exceptions.BytesWarning'>, 'DeprecationWarning': <type 'exceptions.DeprecationWarning'>, 'EOFError': <type 'exceptions.EOFError'>, 'Ellipsis': Ellipsis, 'EnvironmentError': <type 'exceptions.EnvironmentError'>, ...}"
p295
sS'HTML'
p296
S"<class 'gluon.html.HTML'>"
p297
sS'SQLFORM'
p298
S"<class 'gluon.sqlhtml.SQLFORM'>"
p299
sS'LOAD'
p300
S'<function LOAD>'
p301
sS'redirect'
p302
S'<function redirect>'
p303
sS'FIELDSET'
p304
S"<class 'gluon.html.FIELDSET'>"
p305
sS'IS_EQUAL_TO'
p306
S"<class 'gluon.validators.IS_EQUAL_TO'>"
p307
sS'embed64'
p308
S'<function embed64>'
p309
sS'IS_LIST_OF'
p310
S"<class 'gluon.validators.IS_LIST_OF'>"
p311
sS'INPUT'
p312
S"<class 'gluon.html.INPUT'>"
p313
sS'EMBED'
p314
S"<class 'gluon.html.EMBED'>"
p315
sS'_'
S'<function _>'
p316
sS'H2'
p317
S"<class 'gluon.html.H2'>"
p318
sS'H3'
p319
S"<class 'gluon.html.H3'>"
p320
sS'BUTTON'
p321
S"<class 'gluon.html.BUTTON'>"
p322
sS'H1'
p323
S"<class 'gluon.html.H1'>"
p324
sS'H6'
p325
S"<class 'gluon.html.H6'>"
p326
sS'H4'
p327
S"<class 'gluon.html.H4'>"
p328
sS'H5'
p329
S"<class 'gluon.html.H5'>"
p330
sS'UL'
p331
S"<class 'gluon.html.UL'>"
p332
sS'IS_UPPER'
p333
S"<class 'gluon.validators.IS_UPPER'>"
p334
sS'xmlescape'
p335
S'<function xmlescape>'
p336
sS'IS_TIME'
p337
S"<class 'gluon.validators.IS_TIME'>"
p338
sS'OPTION'
p339
S"<class 'gluon.html.OPTION'>"
p340
sS'TITLE'
p341
S"<class 'gluon.html.TITLE'>"
p342
sS'CRYPT'
p343
S"<class 'gluon.validators.CRYPT'>"
p344
sS'IS_EMPTY_OR'
p345
S"<class 'gluon.validators.IS_EMPTY_OR'>"
p346
sS'MARKMIN'
p347
S"<class 'gluon.html.MARKMIN'>"
p348
sS'__name__'
p349
S"'__restricted__'"
p350
sS'STRONG'
p351
S"<class 'gluon.html.STRONG'>"
p352
sS'COL'
p353
S"<class 'gluon.html.COL'>"
p354
sS'service'
p355
S'<gluon.tools.Service object>'
p356
sS'SCRIPT'
p357
S"<class 'gluon.html.SCRIPT'>"
p358
sS'TABLE'
p359
S"<class 'gluon.html.TABLE'>"
p360
sS'IS_IPV4'
p361
S"<class 'gluon.validators.IS_IPV4'>"
p362
sS'IS_LENGTH'
p363
S"<class 'gluon.validators.IS_LENGTH'>"
p364
sS'IS_IPV6'
p365
S"<class 'gluon.validators.IS_IPV6'>"
p366
sS'XML'
p367
S"<class 'gluon.html.XML'>"
p368
sS'B'
S"<class 'gluon.html.B'>"
p369
sS'IMG'
p370
S"<class 'gluon.html.IMG'>"
p371
sS'SQLTABLE'
p372
S"<class 'gluon.sqlhtml.SQLTABLE'>"
p373
sS'IS_MATCH'
p374
S"<class 'gluon.validators.IS_MATCH'>"
p375
sS'IS_ALPHANUMERIC'
p376
S"<class 'gluon.validators.IS_ALPHANUMERIC'>"
p377
sS'SPAN'
p378
S"<class 'gluon.html.SPAN'>"
p379
sS'IS_JSON'
p380
S"<class 'gluon.validators.IS_JSON'>"
p381
sS'IS_IPADDRESS'
p382
S"<class 'gluon.validators.IS_IPADDRESS'>"
p383
sS'IS_SLUG'
p384
S"<class 'gluon.validators.IS_SLUG'>"
p385
sS'BEAUTIFY'
p386
S"<class 'gluon.html.BEAUTIFY'>"
p387
sS'META'
p388
S"<class 'gluon.html.META'>"
p389
sS'get_email'
p390
S'<function get_email>'
p391
sS'IS_DATE'
p392
S"<class 'gluon.validators.IS_DATE'>"
p393
sS'IS_EMAIL'
p394
S"<class 'gluon.validators.IS_EMAIL'>"
p395
sS'IS_NOT_EMPTY'
p396
S"<class 'gluon.validators.IS_NOT_EMPTY'>"
p397
sS'IS_FLOAT_IN_RANGE'
p398
S"<class 'gluon.validators.IS_FLOAT_IN_RANGE'>"
p399
sS'TBODY'
p400
S"<class 'gluon.html.TBODY'>"
p401
sS'CAT'
p402
S"<class 'gluon.html.CAT'>"
p403
sS'Field'
p404
S"<class 'gluon.dal.Field'>"
p405
sS'IS_LIST_OF_EMAILS'
p406
S"<class 'gluon.validators.IS_LIST_OF_EMAILS'>"
p407
sS'DIV'
p408
S"<class 'gluon.html.DIV'>"
p409
sS'LEGEND'
p410
S"<class 'gluon.html.LEGEND'>"
p411
sS'COLGROUP'
p412
S"<class 'gluon.html.COLGROUP'>"
p413
sS'DAL'
p414
S"<class 'gluon.dal.DAL'>"
p415
sS'TT'
p416
S"<class 'gluon.html.TT'>"
p417
sS'TR'
p418
S"<class 'gluon.html.TR'>"
p419
sS'LI'
p420
S"<class 'gluon.html.LI'>"
p421
sS'TH'
p422
S"<class 'gluon.html.TH'>"
p423
sS'TD'
p424
S"<class 'gluon.html.TD'>"
p425
sS'PluginManager'
p426
S"<class 'gluon.tools.PluginManager'>"
p427
sS'IS_URL'
p428
S"<class 'gluon.validators.IS_URL'>"
p429
sS'A'
S"<class 'gluon.html.A'>"
p430
sS'HEAD'
p431
S"<class 'gluon.html.HEAD'>"
p432
sS'IS_DATETIME_IN_RANGE'
p433
S"<class 'gluon.validators.IS_DATETIME_IN_RANGE'>"
p434
sS'FORM'
p435
S"<class 'gluon.html.FORM'>"
p436
sS'I'
S"<class 'gluon.html.I'>"
p437
sS'crud'
p438
S'<gluon.tools.Crud object>'
p439
sS'IS_NOT_IN_DB'
p440
S"<class 'gluon.validators.IS_NOT_IN_DB'>"
p441
sg189
S"<Storage {'body': <cStringIO.StringO object at 0... at 0x10d24e140>, 'view': 'default/roster.html'}>"
p442
sS'THEAD'
p443
S"<class 'gluon.html.THEAD'>"
p444
sS'ANY_OF'
p445
S"<class 'gluon.validators.ANY_OF'>"
p446
sS'IS_NULL_OR'
p447
S"<class 'gluon.validators.IS_EMPTY_OR'>"
p448
sg54
S"<Storage {'_vars': <Storage {'records': []}>, 'f...p/Contents/Resources/applications/tennis_club/'}>"
p449
sS'IS_EXPR'
p450
S"<class 'gluon.validators.IS_EXPR'>"
p451
sS'T'
S'<gluon.languages.translator object>'
p452
sS'IS_IN_SET'
p453
S"<class 'gluon.validators.IS_IN_SET'>"
p454
sS'IS_UPLOAD_FILENAME'
p455
S"<class 'gluon.validators.IS_UPLOAD_FILENAME'>"
p456
sS'IS_DECIMAL_IN_RANGE'
p457
S"<class 'gluon.validators.IS_DECIMAL_IN_RANGE'>"
p458
sssS'traceback'
p459
S'Traceback (most recent call last):\n  File "/Applications/web2py.app/Contents/Resources/gluon/main.py", line 446, in wsgibase\n  File "/Applications/web2py.app/Contents/Resources/gluon/main.py", line 196, in serve_controller\n  File "/Applications/web2py.app/Contents/Resources/gluon/compileapp.py", line 690, in run_view_in\n  File "/Applications/web2py.app/Contents/Resources/gluon/template.py", line 790, in parse_template\n  File "/Applications/web2py.app/Contents/Resources/gluon/template.py", line 316, in __init__\n  File "/Applications/web2py.app/Contents/Resources/gluon/template.py", line 761, in parse\n  File "/Applications/web2py.app/Contents/Resources/gluon/template.py", line 476, in extend\n  File "/Applications/web2py.app/Contents/Resources/gluon/template.py", line 436, in _get_file_text\n  File "<string>", line 1, in <module>\nNameError: name \'layout\' is not defined\n'
p460
s.