(dp1
S'output'
p2
S'Unable to open included view file: /Applications/web2py.app/Contents/Resources/applications/tennis_club/views/my_layout'
p3
sS'layer'
p4
S'ParserContainer'
p5
sS'code'
p6
S"{{extend 'my_layout'}}"
p7
sS'snapshot'
p8
(dp9
S'exception'
p10
(dp11
S'__getslice__'
p12
S"<method-wrapper '__getslice__' of exceptions.IOError object>"
p13
sS'__str__'
p14
S"<method-wrapper '__str__' of exceptions.IOError object>"
p15
sS'__reduce__'
p16
S'<built-in method __reduce__ of exceptions.IOError object>'
p17
sS'__dict__'
p18
S'{}'
p19
sS'__sizeof__'
p20
S'<built-in method __sizeof__ of exceptions.IOError object>'
p21
sS'__init__'
p22
S"<method-wrapper '__init__' of exceptions.IOError object>"
p23
sS'__setattr__'
p24
S"<method-wrapper '__setattr__' of exceptions.IOError object>"
p25
sS'__reduce_ex__'
p26
S'<built-in method __reduce_ex__ of exceptions.IOError object>'
p27
sS'__new__'
p28
S'<built-in method __new__ of type object>'
p29
sS'errno'
p30
S'2'
sS'__format__'
p31
S'<built-in method __format__ of exceptions.IOError object>'
p32
sS'__class__'
p33
S"<type 'exceptions.IOError'>"
p34
sS'filename'
p35
S"'/Applications/web2py.app/Contents/Resources/applications/tennis_club/views/my_layout'"
p36
sS'__doc__'
p37
S"'I/O operation failed.'"
p38
sS'__getitem__'
p39
S"<method-wrapper '__getitem__' of exceptions.IOError object>"
p40
sS'__setstate__'
p41
S'<built-in method __setstate__ of exceptions.IOError object>'
p42
sS'__getattribute__'
p43
S"<method-wrapper '__getattribute__' of exceptions.IOError object>"
p44
sS'args'
p45
S"(2, 'No such file or directory')"
p46
sS'__subclasshook__'
p47
S'<built-in method __subclasshook__ of type object>'
p48
sS'__unicode__'
p49
S'<built-in method __unicode__ of exceptions.IOError object>'
p50
sS'strerror'
p51
S"'No such file or directory'"
p52
sS'__delattr__'
p53
S"<method-wrapper '__delattr__' of exceptions.IOError object>"
p54
sS'__repr__'
p55
S"<method-wrapper '__repr__' of exceptions.IOError object>"
p56
sS'__hash__'
p57
S"<method-wrapper '__hash__' of exceptions.IOError object>"
p58
ssS'evalue'
p59
S"[Errno 2] No such file or directory: '/Applications/web2py.app/Contents/Resources/applications/tennis_club/views/my_layout'"
p60
sS'frames'
p61
(lp62
(dp63
S'file'
p64
S'/Applications/web2py.app/Contents/Resources/gluon/template.py'
p65
sS'dump'
p66
(dp67
sS'lnum'
p68
I447
sS'lines'
p69
(dp70
I448
S'            text = fileobj.read()'
p71
sI449
S'            fileobj.close()'
p72
sI450
S'        except IOError:'
p73
sI451
S"            self._raise_error('Unable to open included view file: ' + filepath)"
p74
sI442
S'        # Get the path of the file on the system.'
p75
sI443
S'        filepath = self.path and os.path.join(self.path, filename) or filename'
p76
sI444
S''
sI445
S'        # try to read the text.'
p77
sI446
S'        try:'
p78
sI447
S"            fileobj = open(filepath, 'rb')"
p79
ssS'call'
p80
S"(self=<gluon.template.TemplateParser object>, filename='my_layout')"
p81
sS'func'
p82
S'_get_file_text'
p83
sasS'pyver'
p84
S'Python 2.7.3: /Applications/web2py.app/Contents/MacOS/python (prefix: /Applications/web2py.app/Contents/Resources)'
p85
sS'etype'
p86
S"<type 'exceptions.IOError'>"
p87
sS'date'
p88
S'Mon Nov 18 20:26:28 2013'
p89
sS'locals'
p90
(dp91
S'self'
p92
S'<gluon.template.TemplateParser object>'
p93
sS'filepath'
p94
S"'/Applications/web2py.app/Contents/Resources/applications/tennis_club/views/my_layout'"
p95
sS'context'
p96
S"{'A': <class 'gluon.html.A'>, 'ANY_OF': <class 'gluon.validators.ANY_OF'>, 'Auth': <class 'gluon.tools.Auth'>, 'B': <class 'gluon.html.B'>, 'BEAUTIFY': <class 'gluon.html.BEAUTIFY'>, 'BODY': <class 'gluon.html.BODY'>, 'BR': <class 'gluon.html.BR'>, 'BUTTON': <class 'gluon.html.BUTTON'>, 'CAT': <class 'gluon.html.CAT'>, 'CENTER': <class 'gluon.html.CENTER'>, ...}"
p97
sg35
S"'my_layout'"
p98
sssS'traceback'
p99
S'Traceback (most recent call last):\n  File "/Applications/web2py.app/Contents/Resources/gluon/template.py", line 447, in _get_file_text\nIOError: [Errno 2] No such file or directory: \'/Applications/web2py.app/Contents/Resources/applications/tennis_club/views/my_layout\'\n'
p100
s.